target datalayout = "e-m:e-p270:32:32-p271:32:32-p272:64:64-i64:64-i128:128-f80:128-n8:16:32:64-S128"
target triple = "x86_64-pc-linux-gnu"

@s_Truths6Neg = internal global [6 x i64] [i64 6148914691236517205, i64 3689348814741910323, i64 1085102592571150095, i64 71777214294589695, i64 281470681808895, i64 4294967295], align 16
@s_Truths6 = internal global [6 x i64] [i64 -6148914691236517206, i64 -3689348814741910324, i64 -1085102592571150096, i64 -71777214294589696, i64 -281470681808896, i64 -4294967296], align 16

; Function Attrs: inlinehint nounwind uwtable
define internal i64 @Abc_Tt6Cofactor1(i64 noundef %0, i32 noundef %1) #3 {
  %3 = alloca i64, align 8
  %4 = alloca i32, align 4
  store i64 %0, ptr %3, align 8, !tbaa !79
  store i32 %1, ptr %4, align 4, !tbaa !3
  %5 = load i64, ptr %3, align 8, !tbaa !79
  %6 = load i32, ptr %4, align 4, !tbaa !3
  %7 = sext i32 %6 to i64
  %8 = getelementptr inbounds [6 x i64], ptr @s_Truths6, i64 0, i64 %7
  %9 = load i64, ptr %8, align 8, !tbaa !79
  %10 = and i64 %5, %9
  %11 = load i64, ptr %3, align 8, !tbaa !79
  %12 = load i32, ptr %4, align 4, !tbaa !3
  %13 = sext i32 %12 to i64
  %14 = getelementptr inbounds [6 x i64], ptr @s_Truths6, i64 0, i64 %13
  %15 = load i64, ptr %14, align 8, !tbaa !79
  %16 = and i64 %11, %15
  %17 = load i32, ptr %4, align 4, !tbaa !3
  %18 = shl i32 1, %17
  %19 = zext i32 %18 to i64
  %20 = lshr i64 %16, %19
  %21 = or i64 %10, %20
  ret i64 %21
}

; Function Attrs: inlinehint nounwind uwtable
define internal i64 @Abc_Tt6Cofactor0(i64 noundef %0, i32 noundef %1) #3 {
  %3 = alloca i64, align 8
  %4 = alloca i32, align 4
  store i64 %0, ptr %3, align 8, !tbaa !79
  store i32 %1, ptr %4, align 4, !tbaa !3
  %5 = load i64, ptr %3, align 8, !tbaa !79
  %6 = load i32, ptr %4, align 4, !tbaa !3
  %7 = sext i32 %6 to i64
  %8 = getelementptr inbounds [6 x i64], ptr @s_Truths6Neg, i64 0, i64 %7
  %9 = load i64, ptr %8, align 8, !tbaa !79
  %10 = and i64 %5, %9
  %11 = load i64, ptr %3, align 8, !tbaa !79
  %12 = load i32, ptr %4, align 4, !tbaa !3
  %13 = sext i32 %12 to i64
  %14 = getelementptr inbounds [6 x i64], ptr @s_Truths6Neg, i64 0, i64 %13
  %15 = load i64, ptr %14, align 8, !tbaa !79
  %16 = and i64 %11, %15
  %17 = load i32, ptr %4, align 4, !tbaa !3
  %18 = shl i32 1, %17
  %19 = zext i32 %18 to i64
  %20 = shl i64 %16, %19
  %21 = or i64 %10, %20
  ret i64 %21
}

; Function Attrs: nounwind uwtable
define i32 @If_CluCheckDecIn(i64 noundef %0, i32 noundef %1) #0 {
  %3 = alloca i32, align 4
  %4 = alloca i64, align 8
  %5 = alloca i32, align 4
  %6 = alloca i32, align 4
  %7 = alloca i32, align 4
  %8 = alloca [2 x i32], align 4
  %9 = alloca [4 x i32], align 16
  %10 = alloca i32, align 4
  store i64 %0, ptr %4, align 8, !tbaa !79
  store i32 %1, ptr %5, align 4, !tbaa !3
  call void @llvm.lifetime.start.p0(i64 4, ptr %6) #11
  call void @llvm.lifetime.start.p0(i64 4, ptr %7) #11
  call void @llvm.lifetime.start.p0(i64 8, ptr %8) #11
  call void @llvm.lifetime.start.p0(i64 16, ptr %9) #11
  store i32 0, ptr %6, align 4, !tbaa !3
  br label %11

11:                                               ; preds = %116, %2
  %12 = load i32, ptr %6, align 4, !tbaa !3
  %13 = icmp slt i32 %12, 1
  br i1 %13, label %14, label %119

14:                                               ; preds = %11
  %15 = load i64, ptr %4, align 8, !tbaa !79
  %16 = load i32, ptr %6, align 4, !tbaa !3
  %17 = call i64 @Abc_Tt6Cofactor0(i64 noundef %15, i32 noundef %16)
  %18 = trunc i64 %17 to i32
  %19 = getelementptr inbounds [2 x i32], ptr %8, i64 0, i64 0
  store i32 %18, ptr %19, align 4, !tbaa !3
  %20 = load i64, ptr %4, align 8, !tbaa !79
  %21 = load i32, ptr %6, align 4, !tbaa !3
  %22 = call i64 @Abc_Tt6Cofactor1(i64 noundef %20, i32 noundef %21)
  %23 = trunc i64 %22 to i32
  %24 = getelementptr inbounds [2 x i32], ptr %8, i64 0, i64 1
  store i32 %23, ptr %24, align 4, !tbaa !3
  %25 = load i32, ptr %6, align 4, !tbaa !3
  %26 = add nsw i32 %25, 1
  store i32 %26, ptr %7, align 4, !tbaa !3
  br label %27

27:                                               ; preds = %112, %14
  %28 = load i32, ptr %7, align 4, !tbaa !3
  %29 = load i32, ptr %5, align 4, !tbaa !3
  %30 = icmp slt i32 %28, %29
  br i1 %30, label %31, label %115

31:                                               ; preds = %27
  %32 = getelementptr inbounds [2 x i32], ptr %8, i64 0, i64 0
  %33 = load i32, ptr %32, align 4, !tbaa !3
  %34 = sext i32 %33 to i64
  %35 = load i32, ptr %7, align 4, !tbaa !3
  %36 = call i64 @Abc_Tt6Cofactor0(i64 noundef %34, i32 noundef %35)
  %37 = trunc i64 %36 to i32
  %38 = getelementptr inbounds [4 x i32], ptr %9, i64 0, i64 0
  store i32 %37, ptr %38, align 16, !tbaa !3
  %39 = getelementptr inbounds [2 x i32], ptr %8, i64 0, i64 0
  %40 = load i32, ptr %39, align 4, !tbaa !3
  %41 = sext i32 %40 to i64
  %42 = load i32, ptr %7, align 4, !tbaa !3
  %43 = call i64 @Abc_Tt6Cofactor1(i64 noundef %41, i32 noundef %42)
  %44 = trunc i64 %43 to i32
  %45 = getelementptr inbounds [4 x i32], ptr %9, i64 0, i64 1
  store i32 %44, ptr %45, align 4, !tbaa !3
  %46 = getelementptr inbounds [2 x i32], ptr %8, i64 0, i64 1
  %47 = load i32, ptr %46, align 4, !tbaa !3
  %48 = sext i32 %47 to i64
  %49 = load i32, ptr %7, align 4, !tbaa !3
  %50 = call i64 @Abc_Tt6Cofactor0(i64 noundef %48, i32 noundef %49)
  %51 = trunc i64 %50 to i32
  %52 = getelementptr inbounds [4 x i32], ptr %9, i64 0, i64 2
  store i32 %51, ptr %52, align 8, !tbaa !3
  %53 = getelementptr inbounds [2 x i32], ptr %8, i64 0, i64 1
  %54 = load i32, ptr %53, align 4, !tbaa !3
  %55 = sext i32 %54 to i64
  %56 = load i32, ptr %7, align 4, !tbaa !3
  %57 = call i64 @Abc_Tt6Cofactor1(i64 noundef %55, i32 noundef %56)
  %58 = trunc i64 %57 to i32
  %59 = getelementptr inbounds [4 x i32], ptr %9, i64 0, i64 3
  store i32 %58, ptr %59, align 4, !tbaa !3
  %60 = getelementptr inbounds [4 x i32], ptr %9, i64 0, i64 0
  %61 = load i32, ptr %60, align 16, !tbaa !3
  %62 = getelementptr inbounds [4 x i32], ptr %9, i64 0, i64 1
  %63 = load i32, ptr %62, align 4, !tbaa !3
  %64 = icmp eq i32 %61, %63
  br i1 %64, label %65, label %72

65:                                               ; preds = %31
  %66 = getelementptr inbounds [4 x i32], ptr %9, i64 0, i64 0
  %67 = load i32, ptr %66, align 16, !tbaa !3
  %68 = getelementptr inbounds [4 x i32], ptr %9, i64 0, i64 2
  %69 = load i32, ptr %68, align 8, !tbaa !3
  %70 = icmp eq i32 %67, %69
  br i1 %70, label %71, label %72

71:                                               ; preds = %65
  store i32 1, ptr %3, align 4
  store i32 1, ptr %10, align 4
  br label %120

72:                                               ; preds = %65, %31
  %73 = getelementptr inbounds [4 x i32], ptr %9, i64 0, i64 0
  %74 = load i32, ptr %73, align 16, !tbaa !3
  %75 = getelementptr inbounds [4 x i32], ptr %9, i64 0, i64 2
  %76 = load i32, ptr %75, align 8, !tbaa !3
  %77 = icmp eq i32 %74, %76
  br i1 %77, label %78, label %85

78:                                               ; preds = %72
  %79 = getelementptr inbounds [4 x i32], ptr %9, i64 0, i64 0
  %80 = load i32, ptr %79, align 16, !tbaa !3
  %81 = getelementptr inbounds [4 x i32], ptr %9, i64 0, i64 3
  %82 = load i32, ptr %81, align 4, !tbaa !3
  %83 = icmp eq i32 %80, %82
  br i1 %83, label %84, label %85

84:                                               ; preds = %78
  store i32 1, ptr %3, align 4
  store i32 1, ptr %10, align 4
  br label %120

85:                                               ; preds = %78, %72
  %86 = getelementptr inbounds [4 x i32], ptr %9, i64 0, i64 0
  %87 = load i32, ptr %86, align 16, !tbaa !3
  %88 = getelementptr inbounds [4 x i32], ptr %9, i64 0, i64 1
  %89 = load i32, ptr %88, align 4, !tbaa !3
  %90 = icmp eq i32 %87, %89
  br i1 %90, label %91, label %98

91:                                               ; preds = %85
  %92 = getelementptr inbounds [4 x i32], ptr %9, i64 0, i64 0
  %93 = load i32, ptr %92, align 16, !tbaa !3
  %94 = getelementptr inbounds [4 x i32], ptr %9, i64 0, i64 3
  %95 = load i32, ptr %94, align 4, !tbaa !3
  %96 = icmp eq i32 %93, %95
  br i1 %96, label %97, label %98

97:                                               ; preds = %91
  store i32 1, ptr %3, align 4
  store i32 1, ptr %10, align 4
  br label %120

98:                                               ; preds = %91, %85
  %99 = getelementptr inbounds [4 x i32], ptr %9, i64 0, i64 1
  %100 = load i32, ptr %99, align 4, !tbaa !3
  %101 = getelementptr inbounds [4 x i32], ptr %9, i64 0, i64 2
  %102 = load i32, ptr %101, align 8, !tbaa !3
  %103 = icmp eq i32 %100, %102
  br i1 %103, label %104, label %111

104:                                              ; preds = %98
  %105 = getelementptr inbounds [4 x i32], ptr %9, i64 0, i64 1
  %106 = load i32, ptr %105, align 4, !tbaa !3
  %107 = getelementptr inbounds [4 x i32], ptr %9, i64 0, i64 3
  %108 = load i32, ptr %107, align 4, !tbaa !3
  %109 = icmp eq i32 %106, %108
  br i1 %109, label %110, label %111

110:                                              ; preds = %104
  store i32 1, ptr %3, align 4
  store i32 1, ptr %10, align 4
  br label %120

111:                                              ; preds = %104, %98
  br label %112

112:                                              ; preds = %111
  %113 = load i32, ptr %7, align 4, !tbaa !3
  %114 = add nsw i32 %113, 1
  store i32 %114, ptr %7, align 4, !tbaa !3
  br label %27, !llvm.loop !180

115:                                              ; preds = %27
  br label %116

116:                                              ; preds = %115
  %117 = load i32, ptr %6, align 4, !tbaa !3
  %118 = add nsw i32 %117, 1
  store i32 %118, ptr %6, align 4, !tbaa !3
  br label %11, !llvm.loop !181

119:                                              ; preds = %11
  store i32 0, ptr %3, align 4
  store i32 1, ptr %10, align 4
  br label %120

120:                                              ; preds = %119, %110, %97, %84, %71
  call void @llvm.lifetime.end.p0(i64 16, ptr %9) #11
  call void @llvm.lifetime.end.p0(i64 8, ptr %8) #11
  call void @llvm.lifetime.end.p0(i64 4, ptr %7) #11
  call void @llvm.lifetime.end.p0(i64 4, ptr %6) #11
  %121 = load i32, ptr %3, align 4
  ret i32 %121
}