; Function Attrs: nofree norecurse nosync nounwind memory(none) uwtable
define range(i32 0, 2) i32 @If_CluCheckDecIn(i64 noundef %0, i32 noundef %1) local_unnamed_addr #0 {
.critedge:
  %2 = icmp sgt i32 %1, 1
  br i1 %2, label %.lr.ph, label %._crit_edge

.lr.ph:                                           ; preds = %.critedge
  %3 = and i64 %0, -6148914691236517206
  %4 = lshr exact i64 %3, 1
  %5 = or disjoint i64 %4, %3
  %6 = and i64 %0, 6148914691236517205
  %sext = mul i64 %6, 12884901888
  %7 = ashr exact i64 %sext, 32
  %sext34 = shl i64 %5, 32
  %8 = ashr exact i64 %sext34, 32
  %wide.trip.count = zext nneg i32 %1 to i64
  br label %10

9:                                                ; preds = %39
  %indvars.iv.next = add nuw nsw i64 %indvars.iv, 1
  %exitcond.not = icmp eq i64 %indvars.iv.next, %wide.trip.count
  br i1 %exitcond.not, label %._crit_edge, label %10, !llvm.loop !186

10:                                               ; preds = %.lr.ph, %9
  %indvars.iv = phi i64 [ 1, %.lr.ph ], [ %indvars.iv.next, %9 ]
  %11 = getelementptr inbounds nuw [6 x i64], ptr @s_Truths6Neg, i64 0, i64 %indvars.iv
  %12 = load i64, ptr %11, align 8, !tbaa !16
  %13 = and i64 %12, %7
  %14 = trunc nuw nsw i64 %indvars.iv to i32
  %15 = shl nuw i32 1, %14
  %16 = zext nneg i32 %15 to i64
  %17 = shl i64 %13, %16
  %18 = or i64 %17, %13
  %19 = trunc i64 %18 to i32
  %20 = getelementptr inbounds nuw [6 x i64], ptr @s_Truths6, i64 0, i64 %indvars.iv
  %21 = load i64, ptr %20, align 8, !tbaa !16
  %22 = and i64 %21, %7
  %23 = lshr i64 %22, %16
  %24 = or i64 %23, %22
  %25 = trunc i64 %24 to i32
  %26 = and i64 %12, %8
  %27 = shl i64 %26, %16
  %28 = or i64 %27, %26
  %29 = trunc i64 %28 to i32
  %30 = and i64 %21, %8
  %31 = lshr i64 %30, %16
  %32 = or i64 %31, %30
  %33 = trunc i64 %32 to i32
  %34 = icmp eq i32 %19, %25
  %35 = icmp eq i32 %19, %29
  %or.cond = select i1 %34, i1 %35, i1 false
  br i1 %or.cond, label %._crit_edge, label %36

36:                                               ; preds = %10
  %37 = icmp eq i32 %19, %33
  %38 = or i1 %35, %34
  %or.cond38 = select i1 %38, i1 %37, i1 false
  br i1 %or.cond38, label %._crit_edge, label %39

39:                                               ; preds = %36
  %40 = icmp eq i32 %25, %29
  %41 = icmp eq i32 %25, %33
  %or.cond37 = select i1 %40, i1 %41, i1 false
  br i1 %or.cond37, label %._crit_edge, label %9

._crit_edge:                                      ; preds = %10, %36, %39, %9, %.critedge
  %.0 = phi i32 [ 0, %.critedge ], [ 0, %9 ], [ 1, %39 ], [ 1, %36 ], [ 1, %10 ]
  ret i32 %.0
}